target datalayout = "e-m:e-p270:32:32-p271:32:32-p272:64:64-i64:64-i128:128-f80:128-n8:16:32:64-S128"
target triple = "x86_64-pc-linux-gnu"

%struct.pointf_s = type { double, double }
%struct.Agobj_s = type { %struct.Agtag_s, ptr }
%struct.Agtag_s = type { i32, i64 }
%struct.Agnodeinfo_t = type { %struct.Agrec_s, ptr, ptr, %struct.pointf_s, double, double, %struct.boxf, double, double, double, double, double, ptr, ptr, ptr, i8, i8, i8, i8, i32, i32, i32, ptr, double, i8, i8, ptr, ptr, i8, i64, i8, i8, i8, ptr, ptr, %struct.elist, %struct.elist, %struct.elist, %struct.elist, %struct.elist, ptr, i32, ptr, i32, i32, double, %struct.elist, %struct.elist, %struct.elist, %struct.elist, ptr, i32, i32, i32, [1 x double] }
%struct.Agrec_s = type { ptr, ptr }
%struct.boxf = type { %struct.pointf_s, %struct.pointf_s }
%struct.elist = type { ptr, i64 }
%struct.Agraphinfo_t = type { %struct.Agrec_s, ptr, ptr, %struct.boxf, [4 x %struct.pointf_s], i8, i8, i8, i8, i32, double, double, i16, ptr, ptr, ptr, ptr, i32, ptr, ptr, ptr, ptr, i16, i16, i32, ptr, ptr, ptr, ptr, ptr, i32, ptr, ptr, %struct.nlist_t, ptr, ptr, i32, i32, i8, i8, i32, i32, i32, ptr, ptr, ptr, ptr, i8, i8, i8, i8, i8 }
%struct.nlist_t = type { ptr, i64 }
%struct.field_t = type { %struct.pointf_s, %struct.boxf, i32, ptr, ptr, ptr, i8, i8 }
%struct.port = type { %struct.pointf_s, double, ptr, i8, i8, i8, i8, i8, i8, ptr }

; Function Attrs: nounwind uwtable
define internal i32 @record_path(ptr noundef %0, ptr noundef %1, i32 noundef %2, ptr noundef %3, ptr noundef %4) #0 {
  %6 = alloca i32, align 4
  %7 = alloca ptr, align 8
  %8 = alloca ptr, align 8
  %9 = alloca i32, align 4
  %10 = alloca ptr, align 8
  %11 = alloca ptr, align 8
  %12 = alloca i32, align 4
  %13 = alloca double, align 8
  %14 = alloca double, align 8
  %15 = alloca %struct.pointf_s, align 8
  %16 = alloca ptr, align 8
  %17 = alloca i32, align 4
  %18 = alloca %struct.boxf, align 8
  store ptr %0, ptr %7, align 8, !tbaa !35
  store ptr %1, ptr %8, align 8, !tbaa !135
  store i32 %2, ptr %9, align 4, !tbaa !12
  store ptr %3, ptr %10, align 8, !tbaa !34
  store ptr %4, ptr %11, align 8, !tbaa !194
  call void @llvm.lifetime.start.p0(i64 4, ptr %12) #13
  call void @llvm.lifetime.start.p0(i64 8, ptr %13) #13
  call void @llvm.lifetime.start.p0(i64 8, ptr %14) #13
  call void @llvm.lifetime.start.p0(i64 16, ptr %15) #13
  call void @llvm.lifetime.start.p0(i64 8, ptr %16) #13
  %19 = load ptr, ptr %8, align 8, !tbaa !135
  %20 = getelementptr inbounds nuw %struct.port, ptr %19, i32 0, i32 3
  %21 = load i8, ptr %20, align 8, !tbaa !162, !range !31, !noundef !32
  %22 = trunc i8 %21 to i1
  br i1 %22, label %24, label %23

23:                                               ; preds = %5
  store i32 0, ptr %6, align 4
  store i32 1, ptr %17, align 4
  br label %200

24:                                               ; preds = %5
  %25 = load ptr, ptr %8, align 8, !tbaa !135
  %26 = getelementptr inbounds nuw %struct.port, ptr %25, i32 0, i32 0
  call void @llvm.memcpy.p0.p0.i64(ptr align 8 %15, ptr align 8 %26, i64 16, i1 false), !tbaa.struct !16
  %27 = load ptr, ptr %7, align 8, !tbaa !35
  %28 = getelementptr inbounds nuw %struct.Agobj_s, ptr %27, i32 0, i32 1
  %29 = load ptr, ptr %28, align 8, !tbaa !37
  %30 = getelementptr inbounds nuw %struct.Agnodeinfo_t, ptr %29, i32 0, i32 2
  %31 = load ptr, ptr %30, align 8, !tbaa !117
  store ptr %31, ptr %16, align 8, !tbaa !120
  store i32 0, ptr %12, align 4, !tbaa !12
  br label %32

32:                                               ; preds = %195, %24
  %33 = load i32, ptr %12, align 4, !tbaa !12
  %34 = load ptr, ptr %16, align 8, !tbaa !120
  %35 = getelementptr inbounds nuw %struct.field_t, ptr %34, i32 0, i32 2
  %36 = load i32, ptr %35, align 8, !tbaa !185
  %37 = icmp slt i32 %33, %36
  br i1 %37, label %38, label %198

38:                                               ; preds = %32
  %39 = load ptr, ptr %7, align 8, !tbaa !35
  %40 = call ptr @agraphof(ptr noundef %39)
  %41 = getelementptr inbounds nuw %struct.Agobj_s, ptr %40, i32 0, i32 1
  %42 = load ptr, ptr %41, align 8, !tbaa !37
  %43 = getelementptr inbounds nuw %struct.Agraphinfo_t, ptr %42, i32 0, i32 9
  %44 = load i32, ptr %43, align 4, !tbaa !118
  %45 = and i32 %44, 3
  %46 = and i32 %45, 1
  %47 = icmp ne i32 %46, 0
  br i1 %47, label %71, label %48

48:                                               ; preds = %38
  %49 = load ptr, ptr %16, align 8, !tbaa !120
  %50 = getelementptr inbounds nuw %struct.field_t, ptr %49, i32 0, i32 4
  %51 = load ptr, ptr %50, align 8, !tbaa !176
  %52 = load i32, ptr %12, align 4, !tbaa !12
  %53 = sext i32 %52 to i64
  %54 = getelementptr inbounds ptr, ptr %51, i64 %53
  %55 = load ptr, ptr %54, align 8, !tbaa !120
  %56 = getelementptr inbounds nuw %struct.field_t, ptr %55, i32 0, i32 1
  %57 = getelementptr inbounds nuw %struct.boxf, ptr %56, i32 0, i32 0
  %58 = getelementptr inbounds nuw %struct.pointf_s, ptr %57, i32 0, i32 0
  %59 = load double, ptr %58, align 8, !tbaa !233
  store double %59, ptr %13, align 8, !tbaa !17
  %60 = load ptr, ptr %16, align 8, !tbaa !120
  %61 = getelementptr inbounds nuw %struct.field_t, ptr %60, i32 0, i32 4
  %62 = load ptr, ptr %61, align 8, !tbaa !176
  %63 = load i32, ptr %12, align 4, !tbaa !12
  %64 = sext i32 %63 to i64
  %65 = getelementptr inbounds ptr, ptr %62, i64 %64
  %66 = load ptr, ptr %65, align 8, !tbaa !120
  %67 = getelementptr inbounds nuw %struct.field_t, ptr %66, i32 0, i32 1
  %68 = getelementptr inbounds nuw %struct.boxf, ptr %67, i32 0, i32 1
  %69 = getelementptr inbounds nuw %struct.pointf_s, ptr %68, i32 0, i32 0
  %70 = load double, ptr %69, align 8, !tbaa !234
  store double %70, ptr %14, align 8, !tbaa !17
  br label %94

71:                                               ; preds = %38
  %72 = load ptr, ptr %16, align 8, !tbaa !120
  %73 = getelementptr inbounds nuw %struct.field_t, ptr %72, i32 0, i32 4
  %74 = load ptr, ptr %73, align 8, !tbaa !176
  %75 = load i32, ptr %12, align 4, !tbaa !12
  %76 = sext i32 %75 to i64
  %77 = getelementptr inbounds ptr, ptr %74, i64 %76
  %78 = load ptr, ptr %77, align 8, !tbaa !120
  %79 = getelementptr inbounds nuw %struct.field_t, ptr %78, i32 0, i32 1
  %80 = getelementptr inbounds nuw %struct.boxf, ptr %79, i32 0, i32 0
  %81 = getelementptr inbounds nuw %struct.pointf_s, ptr %80, i32 0, i32 1
  %82 = load double, ptr %81, align 8, !tbaa !235
  store double %82, ptr %13, align 8, !tbaa !17
  %83 = load ptr, ptr %16, align 8, !tbaa !120
  %84 = getelementptr inbounds nuw %struct.field_t, ptr %83, i32 0, i32 4
  %85 = load ptr, ptr %84, align 8, !tbaa !176
  %86 = load i32, ptr %12, align 4, !tbaa !12
  %87 = sext i32 %86 to i64
  %88 = getelementptr inbounds ptr, ptr %85, i64 %87
  %89 = load ptr, ptr %88, align 8, !tbaa !120
  %90 = getelementptr inbounds nuw %struct.field_t, ptr %89, i32 0, i32 1
  %91 = getelementptr inbounds nuw %struct.boxf, ptr %90, i32 0, i32 1
  %92 = getelementptr inbounds nuw %struct.pointf_s, ptr %91, i32 0, i32 1
  %93 = load double, ptr %92, align 8, !tbaa !236
  store double %93, ptr %14, align 8, !tbaa !17
  br label %94

94:                                               ; preds = %71, %48
  %95 = load double, ptr %13, align 8, !tbaa !17
  %96 = getelementptr inbounds nuw %struct.pointf_s, ptr %15, i32 0, i32 0
  %97 = load double, ptr %96, align 8, !tbaa !21
  %98 = fcmp ole double %95, %97
  br i1 %98, label %99, label %194

99:                                               ; preds = %94
  %100 = getelementptr inbounds nuw %struct.pointf_s, ptr %15, i32 0, i32 0
  %101 = load double, ptr %100, align 8, !tbaa !21
  %102 = load double, ptr %14, align 8, !tbaa !17
  %103 = fcmp ole double %101, %102
  br i1 %103, label %104, label %194

104:                                              ; preds = %99
  %105 = load ptr, ptr %7, align 8, !tbaa !35
  %106 = call ptr @agraphof(ptr noundef %105)
  %107 = getelementptr inbounds nuw %struct.Agobj_s, ptr %106, i32 0, i32 1
  %108 = load ptr, ptr %107, align 8, !tbaa !37
  %109 = getelementptr inbounds nuw %struct.Agraphinfo_t, ptr %108, i32 0, i32 9
  %110 = load i32, ptr %109, align 4, !tbaa !118
  %111 = and i32 %110, 3
  %112 = and i32 %111, 1
  %113 = icmp ne i32 %112, 0
  br i1 %113, label %114, label %133

114:                                              ; preds = %104
  %115 = load ptr, ptr %10, align 8, !tbaa !34
  %116 = getelementptr inbounds %struct.boxf, ptr %115, i64 0
  call void @llvm.lifetime.start.p0(i64 32, ptr %18) #13
  %117 = load ptr, ptr %16, align 8, !tbaa !120
  %118 = getelementptr inbounds nuw %struct.field_t, ptr %117, i32 0, i32 4
  %119 = load ptr, ptr %118, align 8, !tbaa !176
  %120 = load i32, ptr %12, align 4, !tbaa !12
  %121 = sext i32 %120 to i64
  %122 = getelementptr inbounds ptr, ptr %119, i64 %121
  %123 = load ptr, ptr %122, align 8, !tbaa !120
  %124 = getelementptr inbounds nuw %struct.field_t, ptr %123, i32 0, i32 1
  %125 = load ptr, ptr %7, align 8, !tbaa !35
  %126 = getelementptr inbounds nuw %struct.Agobj_s, ptr %125, i32 0, i32 1
  %127 = load ptr, ptr %126, align 8, !tbaa !37
  %128 = getelementptr inbounds nuw %struct.Agnodeinfo_t, ptr %127, i32 0, i32 3
  %129 = getelementptr inbounds nuw { double, double }, ptr %128, i32 0, i32 0
  %130 = load double, ptr %129, align 8
  %131 = getelementptr inbounds nuw { double, double }, ptr %128, i32 0, i32 1
  %132 = load double, ptr %131, align 8
  call void @flip_rec_boxf(ptr dead_on_unwind writable sret(%struct.boxf) align 8 %18, ptr noundef byval(%struct.boxf) align 8 %124, double %130, double %132)
  call void @llvm.memcpy.p0.p0.i64(ptr align 8 %116, ptr align 8 %18, i64 32, i1 false), !tbaa.struct !149
  call void @llvm.lifetime.end.p0(i64 32, ptr %18) #13
  br label %175

133:                                              ; preds = %104
  %134 = load ptr, ptr %7, align 8, !tbaa !35
  %135 = getelementptr inbounds nuw %struct.Agobj_s, ptr %134, i32 0, i32 1
  %136 = load ptr, ptr %135, align 8, !tbaa !37
  %137 = getelementptr inbounds nuw %struct.Agnodeinfo_t, ptr %136, i32 0, i32 3
  %138 = getelementptr inbounds nuw %struct.pointf_s, ptr %137, i32 0, i32 0
  %139 = load double, ptr %138, align 8, !tbaa !219
  %140 = load double, ptr %13, align 8, !tbaa !17
  %141 = fadd double %139, %140
  %142 = load ptr, ptr %10, align 8, !tbaa !34
  %143 = getelementptr inbounds %struct.boxf, ptr %142, i64 0
  %144 = getelementptr inbounds nuw %struct.boxf, ptr %143, i32 0, i32 0
  %145 = getelementptr inbounds nuw %struct.pointf_s, ptr %144, i32 0, i32 0
  store double %141, ptr %145, align 8, !tbaa !152
  %146 = load ptr, ptr %7, align 8, !tbaa !35
  %147 = getelementptr inbounds nuw %struct.Agobj_s, ptr %146, i32 0, i32 1
  %148 = load ptr, ptr %147, align 8, !tbaa !37
  %149 = getelementptr inbounds nuw %struct.Agnodeinfo_t, ptr %148, i32 0, i32 3
  %150 = getelementptr inbounds nuw %struct.pointf_s, ptr %149, i32 0, i32 1
  %151 = load double, ptr %150, align 8, !tbaa !220
  %152 = load ptr, ptr %7, align 8, !tbaa !35
  %153 = getelementptr inbounds nuw %struct.Agobj_s, ptr %152, i32 0, i32 1
  %154 = load ptr, ptr %153, align 8, !tbaa !37
  %155 = getelementptr inbounds nuw %struct.Agnodeinfo_t, ptr %154, i32 0, i32 7
  %156 = load double, ptr %155, align 8, !tbaa !150
  %157 = fdiv double %156, 2.000000e+00
  %158 = fsub double %151, %157
  %159 = load ptr, ptr %10, align 8, !tbaa !34
  %160 = getelementptr inbounds %struct.boxf, ptr %159, i64 0
  %161 = getelementptr inbounds nuw %struct.boxf, ptr %160, i32 0, i32 0
  %162 = getelementptr inbounds nuw %struct.pointf_s, ptr %161, i32 0, i32 1
  store double %158, ptr %162, align 8, !tbaa !155
  %163 = load ptr, ptr %7, align 8, !tbaa !35
  %164 = getelementptr inbounds nuw %struct.Agobj_s, ptr %163, i32 0, i32 1
  %165 = load ptr, ptr %164, align 8, !tbaa !37
  %166 = getelementptr inbounds nuw %struct.Agnodeinfo_t, ptr %165, i32 0, i32 3
  %167 = getelementptr inbounds nuw %struct.pointf_s, ptr %166, i32 0, i32 0
  %168 = load double, ptr %167, align 8, !tbaa !219
  %169 = load double, ptr %14, align 8, !tbaa !17
  %170 = fadd double %168, %169
  %171 = load ptr, ptr %10, align 8, !tbaa !34
  %172 = getelementptr inbounds %struct.boxf, ptr %171, i64 0
  %173 = getelementptr inbounds nuw %struct.boxf, ptr %172, i32 0, i32 1
  %174 = getelementptr inbounds nuw %struct.pointf_s, ptr %173, i32 0, i32 0
  store double %170, ptr %174, align 8, !tbaa !151
  br label %175

175:                                              ; preds = %133, %114
  %176 = load ptr, ptr %7, align 8, !tbaa !35
  %177 = getelementptr inbounds nuw %struct.Agobj_s, ptr %176, i32 0, i32 1
  %178 = load ptr, ptr %177, align 8, !tbaa !37
  %179 = getelementptr inbounds nuw %struct.Agnodeinfo_t, ptr %178, i32 0, i32 3
  %180 = getelementptr inbounds nuw %struct.pointf_s, ptr %179, i32 0, i32 1
  %181 = load double, ptr %180, align 8, !tbaa !220
  %182 = load ptr, ptr %7, align 8, !tbaa !35
  %183 = getelementptr inbounds nuw %struct.Agobj_s, ptr %182, i32 0, i32 1
  %184 = load ptr, ptr %183, align 8, !tbaa !37
  %185 = getelementptr inbounds nuw %struct.Agnodeinfo_t, ptr %184, i32 0, i32 7
  %186 = load double, ptr %185, align 8, !tbaa !150
  %187 = fdiv double %186, 2.000000e+00
  %188 = fadd double %181, %187
  %189 = load ptr, ptr %10, align 8, !tbaa !34
  %190 = getelementptr inbounds %struct.boxf, ptr %189, i64 0
  %191 = getelementptr inbounds nuw %struct.boxf, ptr %190, i32 0, i32 1
  %192 = getelementptr inbounds nuw %struct.pointf_s, ptr %191, i32 0, i32 1
  store double %188, ptr %192, align 8, !tbaa !154
  %193 = load ptr, ptr %11, align 8, !tbaa !194
  store i32 1, ptr %193, align 4, !tbaa !12
  br label %198

194:                                              ; preds = %99, %94
  br label %195

195:                                              ; preds = %194
  %196 = load i32, ptr %12, align 4, !tbaa !12
  %197 = add nsw i32 %196, 1
  store i32 %197, ptr %12, align 4, !tbaa !12
  br label %32, !llvm.loop !237

198:                                              ; preds = %175, %32
  %199 = load i32, ptr %9, align 4, !tbaa !12
  store i32 %199, ptr %6, align 4
  store i32 1, ptr %17, align 4
  br label %200

200:                                              ; preds = %198, %23
  call void @llvm.lifetime.end.p0(i64 8, ptr %16) #13
  call void @llvm.lifetime.end.p0(i64 16, ptr %15) #13
  call void @llvm.lifetime.end.p0(i64 8, ptr %14) #13
  call void @llvm.lifetime.end.p0(i64 8, ptr %13) #13
  call void @llvm.lifetime.end.p0(i64 4, ptr %12) #13
  %201 = load i32, ptr %6, align 4
  ret i32 %201
}