; Function Attrs: nounwind uwtable
define internal noundef i32 @record_path(ptr noundef %0, ptr noundef readonly captures(none) %1, i32 noundef %2, ptr noundef writeonly captures(none) %3, ptr noundef writeonly captures(none) %4) #0 {
  %6 = alloca %struct.boxf, align 8
  %7 = getelementptr inbounds nuw i8, ptr %1, i64 32
  %8 = load i8, ptr %7, align 8, !tbaa !139, !range !77, !noundef !78
  %9 = trunc nuw i8 %8 to i1
  br i1 %9, label %10, label %.loopexit

10:                                               ; preds = %5
  %.sroa.0.0.copyload = load double, ptr %1, align 8, !tbaa !4
  %11 = getelementptr inbounds nuw i8, ptr %0, i64 16
  %12 = load ptr, ptr %11, align 8, !tbaa !21
  %13 = getelementptr inbounds nuw i8, ptr %12, i64 24
  %14 = load ptr, ptr %13, align 8, !tbaa !100
  %15 = getelementptr inbounds nuw i8, ptr %14, i64 48
  %16 = load i32, ptr %15, align 8, !tbaa !163
  %17 = icmp sgt i32 %16, 0
  br i1 %17, label %.lr.ph, label %.loopexit

.lr.ph:                                           ; preds = %10
  %18 = getelementptr inbounds nuw i8, ptr %14, i64 64
  br label %19

19:                                               ; preds = %.lr.ph, %69
  %indvars.iv = phi i64 [ 0, %.lr.ph ], [ %indvars.iv.next, %69 ]
  %20 = tail call ptr @agraphof(ptr noundef %0) #26
  %21 = getelementptr inbounds nuw i8, ptr %20, i64 16
  %22 = load ptr, ptr %21, align 8, !tbaa !21
  %23 = getelementptr inbounds nuw i8, ptr %22, i64 132
  %24 = load i32, ptr %23, align 4, !tbaa !101
  %25 = and i32 %24, 1
  %.not = icmp eq i32 %25, 0
  %26 = load ptr, ptr %18, align 8, !tbaa !152
  %27 = getelementptr inbounds nuw ptr, ptr %26, i64 %indvars.iv
  %28 = load ptr, ptr %27, align 8, !tbaa !156
  %. = select i1 %.not, i64 16, i64 24
  %.55 = select i1 %.not, i64 32, i64 40
  %29 = getelementptr inbounds nuw i8, ptr %28, i64 %.
  %30 = getelementptr inbounds nuw i8, ptr %28, i64 %.55
  %.038 = load double, ptr %29, align 8, !tbaa !4
  %.039 = load double, ptr %30, align 8, !tbaa !4
  %31 = fcmp ugt double %.038, %.sroa.0.0.copyload
  %32 = fcmp ugt double %.sroa.0.0.copyload, %.039
  %or.cond = select i1 %31, i1 true, i1 %32
  br i1 %or.cond, label %69, label %33

33:                                               ; preds = %19
  %34 = tail call ptr @agraphof(ptr noundef %0) #26
  %35 = getelementptr inbounds nuw i8, ptr %34, i64 16
  %36 = load ptr, ptr %35, align 8, !tbaa !21
  %37 = getelementptr inbounds nuw i8, ptr %36, i64 132
  %38 = load i32, ptr %37, align 4, !tbaa !101
  %39 = and i32 %38, 1
  %.not40 = icmp eq i32 %39, 0
  br i1 %.not40, label %51, label %40

40:                                               ; preds = %33
  call void @llvm.lifetime.start.p0(i64 32, ptr nonnull %6) #26
  %41 = load ptr, ptr %18, align 8, !tbaa !152
  %42 = and i64 %indvars.iv, 4294967295
  %43 = getelementptr inbounds nuw ptr, ptr %41, i64 %42
  %44 = load ptr, ptr %43, align 8, !tbaa !156
  %45 = getelementptr inbounds nuw i8, ptr %44, i64 16
  %46 = load ptr, ptr %11, align 8, !tbaa !21
  %47 = getelementptr inbounds nuw i8, ptr %46, i64 32
  %48 = load double, ptr %47, align 8
  %49 = getelementptr inbounds nuw i8, ptr %46, i64 40
  %50 = load double, ptr %49, align 8
  call void @flip_rec_boxf(ptr dead_on_unwind nonnull writable sret(%struct.boxf) align 8 %6, ptr noundef nonnull byval(%struct.boxf) align 8 %45, double %48, double %50) #26
  call void @llvm.memcpy.p0.p0.i64(ptr noundef nonnull align 8 dereferenceable(32) %3, ptr noundef nonnull align 8 dereferenceable(32) %6, i64 32, i1 false), !tbaa.struct !213
  call void @llvm.lifetime.end.p0(i64 32, ptr nonnull %6) #26
  %.pre = load ptr, ptr %11, align 8, !tbaa !21
  %.phi.trans.insert = getelementptr inbounds nuw i8, ptr %.pre, i64 40
  %.pre47 = load double, ptr %.phi.trans.insert, align 8, !tbaa !202
  %.phi.trans.insert48 = getelementptr inbounds nuw i8, ptr %.pre, i64 96
  %.pre49 = load double, ptr %.phi.trans.insert48, align 8, !tbaa !132
  %.pre50 = fmul double %.pre49, 5.000000e-01
  br label %65

51:                                               ; preds = %33
  %52 = load ptr, ptr %11, align 8, !tbaa !21
  %53 = getelementptr inbounds nuw i8, ptr %52, i64 32
  %54 = load double, ptr %53, align 8, !tbaa !201
  %55 = fadd double %.038, %54
  store double %55, ptr %3, align 8, !tbaa !171
  %56 = getelementptr inbounds nuw i8, ptr %52, i64 40
  %57 = load double, ptr %56, align 8, !tbaa !202
  %58 = getelementptr inbounds nuw i8, ptr %52, i64 96
  %59 = load double, ptr %58, align 8, !tbaa !132
  %60 = fmul double %59, 5.000000e-01
  %61 = fsub double %57, %60
  %62 = getelementptr inbounds nuw i8, ptr %3, i64 8
  store double %61, ptr %62, align 8, !tbaa !173
  %63 = fadd double %.039, %54
  %64 = getelementptr inbounds nuw i8, ptr %3, i64 16
  store double %63, ptr %64, align 8, !tbaa !170
  br label %65

65:                                               ; preds = %51, %40
  %.pre-phi = phi double [ %60, %51 ], [ %.pre50, %40 ]
  %66 = phi double [ %57, %51 ], [ %.pre47, %40 ]
  %67 = fadd double %66, %.pre-phi
  %68 = getelementptr inbounds nuw i8, ptr %3, i64 24
  store double %67, ptr %68, align 8, !tbaa !172
  store i32 1, ptr %4, align 4, !tbaa !17
  br label %.loopexit

69:                                               ; preds = %19
  %indvars.iv.next = add nuw nsw i64 %indvars.iv, 1
  %70 = load i32, ptr %15, align 8, !tbaa !163
  %71 = sext i32 %70 to i64
  %72 = icmp slt i64 %indvars.iv.next, %71
  br i1 %72, label %19, label %.loopexit, !llvm.loop !214

.loopexit:                                        ; preds = %69, %10, %65, %5
  %.0 = phi i32 [ 0, %5 ], [ %2, %65 ], [ %2, %10 ], [ %2, %69 ]
  ret i32 %.0
}